; Function Attrs: mustprogress ssp uwtable
define noundef zeroext i1 @_ZNK6open3d1t8geometry9RGBDImage7IsEmptyEv(ptr noundef nonnull align 8 dereferenceable(465) %0) unnamed_addr #1 align 2 {
  %2 = getelementptr inbounds nuw i8, ptr %0, i64 48
  %3 = tail call noundef zeroext i1 @_ZNK6open3d1t8geometry5Image7IsEmptyEv(ptr noundef nonnull align 8 dereferenceable(208) %2)
  br i1 %3, label %4, label %7

4:                                                ; preds = %1
  %5 = getelementptr inbounds nuw i8, ptr %0, i64 256
  %6 = tail call noundef zeroext i1 @_ZNK6open3d1t8geometry5Image7IsEmptyEv(ptr noundef nonnull align 8 dereferenceable(208) %5)
  br label %7

7:                                                ; preds = %4, %1
  %8 = phi i1 [ false, %1 ], [ %6, %4 ]
  ret i1 %8
}